target datalayout = "e-m:e-p270:32:32-p271:32:32-p272:64:64-i64:64-i128:128-f80:128-n8:16:32:64-S128"
target triple = "x86_64-pc-linux-gnu"

%"class.ncnn::ParamDict" = type { ptr, ptr }
%"class.ncnn::ParamDictPrivate" = type { [32 x %struct.anon] }
%struct.anon = type { i32, %union.anon, %"class.ncnn::Mat", %"class.std::__cxx11::basic_string" }
%union.anon = type { i32 }
%"class.ncnn::Mat" = type { ptr, ptr, i64, i32, ptr, i32, i32, i32, i32, i32, i64 }
%"class.std::__cxx11::basic_string" = type { %"struct.std::__cxx11::basic_string<char>::_Alloc_hider", i64, %union.anon.0 }
%"struct.std::__cxx11::basic_string<char>::_Alloc_hider" = type { ptr }
%union.anon.0 = type { i64, [8 x i8] }

; Function Attrs: alwaysinline mustprogress nounwind uwtable
define linkonce_odr hidden void @_ZN4ncnn3Mat6addrefEv(ptr noundef nonnull align 8 dereferenceable(72) %0) #6 comdat align 2 {
  %2 = alloca ptr, align 8
  %3 = alloca i32, align 4
  %4 = alloca i32, align 4
  store ptr %0, ptr %2, align 8, !tbaa !30
  %5 = load ptr, ptr %2, align 8
  %6 = getelementptr inbounds nuw %"class.ncnn::Mat", ptr %5, i32 0, i32 1
  %7 = load ptr, ptr %6, align 8, !tbaa !33
  %8 = icmp ne ptr %7, null
  br i1 %8, label %9, label %14

9:                                                ; preds = %1
  %10 = getelementptr inbounds nuw %"class.ncnn::Mat", ptr %5, i32 0, i32 1
  %11 = load ptr, ptr %10, align 8, !tbaa !33
  store i32 1, ptr %3, align 4, !tbaa !15
  %12 = load i32, ptr %3, align 4
  %13 = atomicrmw add ptr %11, i32 %12 acq_rel, align 4
  store i32 %13, ptr %4, align 4
  br label %14

14:                                               ; preds = %9, %1
  ret void
}

; Function Attrs: alwaysinline mustprogress uwtable
define linkonce_odr hidden void @_ZN4ncnn3MatC2ERKS0_(ptr noundef nonnull align 8 dereferenceable(72) %0, ptr noundef nonnull align 8 dereferenceable(72) %1) unnamed_addr #9 comdat align 2 {
  %3 = alloca ptr, align 8
  %4 = alloca ptr, align 8
  store ptr %0, ptr %3, align 8, !tbaa !30
  store ptr %1, ptr %4, align 8, !tbaa !30
  %5 = load ptr, ptr %3, align 8
  %6 = getelementptr inbounds nuw %"class.ncnn::Mat", ptr %5, i32 0, i32 0
  %7 = load ptr, ptr %4, align 8, !tbaa !30
  %8 = getelementptr inbounds nuw %"class.ncnn::Mat", ptr %7, i32 0, i32 0
  %9 = load ptr, ptr %8, align 8, !tbaa !32
  store ptr %9, ptr %6, align 8, !tbaa !32
  %10 = getelementptr inbounds nuw %"class.ncnn::Mat", ptr %5, i32 0, i32 1
  %11 = load ptr, ptr %4, align 8, !tbaa !30
  %12 = getelementptr inbounds nuw %"class.ncnn::Mat", ptr %11, i32 0, i32 1
  %13 = load ptr, ptr %12, align 8, !tbaa !33
  store ptr %13, ptr %10, align 8, !tbaa !33
  %14 = getelementptr inbounds nuw %"class.ncnn::Mat", ptr %5, i32 0, i32 2
  %15 = load ptr, ptr %4, align 8, !tbaa !30
  %16 = getelementptr inbounds nuw %"class.ncnn::Mat", ptr %15, i32 0, i32 2
  %17 = load i64, ptr %16, align 8, !tbaa !34
  store i64 %17, ptr %14, align 8, !tbaa !34
  %18 = getelementptr inbounds nuw %"class.ncnn::Mat", ptr %5, i32 0, i32 3
  %19 = load ptr, ptr %4, align 8, !tbaa !30
  %20 = getelementptr inbounds nuw %"class.ncnn::Mat", ptr %19, i32 0, i32 3
  %21 = load i32, ptr %20, align 8, !tbaa !35
  store i32 %21, ptr %18, align 8, !tbaa !35
  %22 = getelementptr inbounds nuw %"class.ncnn::Mat", ptr %5, i32 0, i32 4
  %23 = load ptr, ptr %4, align 8, !tbaa !30
  %24 = getelementptr inbounds nuw %"class.ncnn::Mat", ptr %23, i32 0, i32 4
  %25 = load ptr, ptr %24, align 8, !tbaa !36
  store ptr %25, ptr %22, align 8, !tbaa !36
  %26 = getelementptr inbounds nuw %"class.ncnn::Mat", ptr %5, i32 0, i32 5
  %27 = load ptr, ptr %4, align 8, !tbaa !30
  %28 = getelementptr inbounds nuw %"class.ncnn::Mat", ptr %27, i32 0, i32 5
  %29 = load i32, ptr %28, align 8, !tbaa !37
  store i32 %29, ptr %26, align 8, !tbaa !37
  %30 = getelementptr inbounds nuw %"class.ncnn::Mat", ptr %5, i32 0, i32 6
  %31 = load ptr, ptr %4, align 8, !tbaa !30
  %32 = getelementptr inbounds nuw %"class.ncnn::Mat", ptr %31, i32 0, i32 6
  %33 = load i32, ptr %32, align 4, !tbaa !38
  store i32 %33, ptr %30, align 4, !tbaa !38
  %34 = getelementptr inbounds nuw %"class.ncnn::Mat", ptr %5, i32 0, i32 7
  %35 = load ptr, ptr %4, align 8, !tbaa !30
  %36 = getelementptr inbounds nuw %"class.ncnn::Mat", ptr %35, i32 0, i32 7
  %37 = load i32, ptr %36, align 8, !tbaa !39
  store i32 %37, ptr %34, align 8, !tbaa !39
  %38 = getelementptr inbounds nuw %"class.ncnn::Mat", ptr %5, i32 0, i32 8
  %39 = load ptr, ptr %4, align 8, !tbaa !30
  %40 = getelementptr inbounds nuw %"class.ncnn::Mat", ptr %39, i32 0, i32 8
  %41 = load i32, ptr %40, align 4, !tbaa !40
  store i32 %41, ptr %38, align 4, !tbaa !40
  %42 = getelementptr inbounds nuw %"class.ncnn::Mat", ptr %5, i32 0, i32 9
  %43 = load ptr, ptr %4, align 8, !tbaa !30
  %44 = getelementptr inbounds nuw %"class.ncnn::Mat", ptr %43, i32 0, i32 9
  %45 = load i32, ptr %44, align 8, !tbaa !41
  store i32 %45, ptr %42, align 8, !tbaa !41
  %46 = getelementptr inbounds nuw %"class.ncnn::Mat", ptr %5, i32 0, i32 10
  %47 = load ptr, ptr %4, align 8, !tbaa !30
  %48 = getelementptr inbounds nuw %"class.ncnn::Mat", ptr %47, i32 0, i32 10
  %49 = load i64, ptr %48, align 8, !tbaa !42
  store i64 %49, ptr %46, align 8, !tbaa !42
  call void @_ZN4ncnn3Mat6addrefEv(ptr noundef nonnull align 8 dereferenceable(72) %5)
  ret void
}

; Function Attrs: mustprogress uwtable
define hidden void @_ZNK4ncnn9ParamDict3getEiRKNS_3MatE(ptr dead_on_unwind noalias writable sret(%"class.ncnn::Mat") align 8 %0, ptr noundef nonnull align 8 dereferenceable(16) %1, i32 noundef %2, ptr noundef nonnull align 8 dereferenceable(72) %3) #1 align 2 {
  %5 = alloca ptr, align 8
  %6 = alloca ptr, align 8
  %7 = alloca i32, align 4
  %8 = alloca ptr, align 8
  store ptr %0, ptr %5, align 8
  store ptr %1, ptr %6, align 8, !tbaa !4
  store i32 %2, ptr %7, align 4, !tbaa !15
  store ptr %3, ptr %8, align 8, !tbaa !30
  %9 = load ptr, ptr %6, align 8
  %10 = getelementptr inbounds nuw %"class.ncnn::ParamDict", ptr %9, i32 0, i32 1
  %11 = load ptr, ptr %10, align 8, !tbaa !11
  %12 = getelementptr inbounds nuw %"class.ncnn::ParamDictPrivate", ptr %11, i32 0, i32 0
  %13 = load i32, ptr %7, align 4, !tbaa !15
  %14 = sext i32 %13 to i64
  %15 = getelementptr inbounds [32 x %struct.anon], ptr %12, i64 0, i64 %14
  %16 = getelementptr inbounds nuw %struct.anon, ptr %15, i32 0, i32 0
  %17 = load i32, ptr %16, align 8, !tbaa !17
  %18 = icmp ne i32 %17, 0
  br i1 %18, label %19, label %27

19:                                               ; preds = %4
  %20 = getelementptr inbounds nuw %"class.ncnn::ParamDict", ptr %9, i32 0, i32 1
  %21 = load ptr, ptr %20, align 8, !tbaa !11
  %22 = getelementptr inbounds nuw %"class.ncnn::ParamDictPrivate", ptr %21, i32 0, i32 0
  %23 = load i32, ptr %7, align 4, !tbaa !15
  %24 = sext i32 %23 to i64
  %25 = getelementptr inbounds [32 x %struct.anon], ptr %22, i64 0, i64 %24
  %26 = getelementptr inbounds nuw %struct.anon, ptr %25, i32 0, i32 2
  br label %29

27:                                               ; preds = %4
  %28 = load ptr, ptr %8, align 8, !tbaa !30
  br label %29

29:                                               ; preds = %27, %19
  %30 = phi ptr [ %26, %19 ], [ %28, %27 ]
  call void @_ZN4ncnn3MatC2ERKS0_(ptr noundef nonnull align 8 dereferenceable(72) %0, ptr noundef nonnull align 8 dereferenceable(72) %30)
  ret void
}