; Function Attrs: mustprogress nofree norecurse nounwind willreturn memory(readwrite, inaccessiblemem: none) uwtable
define hidden void @_ZNK4ncnn9ParamDict3getEiRKNS_3MatE(ptr dead_on_unwind noalias writable writeonly sret(%"class.ncnn::Mat") align 8 captures(none) initializes((0, 28), (32, 60), (64, 72)) %0, ptr noundef nonnull readonly align 8 captures(none) dereferenceable(16) %1, i32 noundef %2, ptr noundef nonnull readonly align 8 captures(none) dereferenceable(72) %3) local_unnamed_addr #10 align 2 {
  %5 = getelementptr inbounds nuw i8, ptr %1, i64 8
  %6 = load ptr, ptr %5, align 8, !tbaa !21
  %7 = sext i32 %2 to i64
  %8 = getelementptr inbounds [32 x %struct.anon], ptr %6, i64 0, i64 %7
  %9 = load i32, ptr %8, align 8, !tbaa !24
  %.not = icmp eq i32 %9, 0
  %10 = getelementptr inbounds nuw i8, ptr %8, i64 8
  %11 = select i1 %.not, ptr %3, ptr %10
  %12 = load ptr, ptr %11, align 8, !tbaa !28
  store ptr %12, ptr %0, align 8, !tbaa !28
  %13 = getelementptr inbounds nuw i8, ptr %0, i64 8
  %14 = getelementptr inbounds nuw i8, ptr %11, i64 8
  %15 = load ptr, ptr %14, align 8, !tbaa !26
  store ptr %15, ptr %13, align 8, !tbaa !26
  %16 = getelementptr inbounds nuw i8, ptr %0, i64 16
  %17 = getelementptr inbounds nuw i8, ptr %11, i64 16
  %18 = load i64, ptr %17, align 8, !tbaa !32
  store i64 %18, ptr %16, align 8, !tbaa !32
  %19 = getelementptr inbounds nuw i8, ptr %0, i64 24
  %20 = getelementptr inbounds nuw i8, ptr %11, i64 24
  %21 = load i32, ptr %20, align 8, !tbaa !33
  store i32 %21, ptr %19, align 8, !tbaa !33
  %22 = getelementptr inbounds nuw i8, ptr %0, i64 32
  %23 = getelementptr inbounds nuw i8, ptr %11, i64 32
  %24 = load ptr, ptr %23, align 8, !tbaa !27
  store ptr %24, ptr %22, align 8, !tbaa !27
  %25 = getelementptr inbounds nuw i8, ptr %0, i64 40
  %26 = getelementptr inbounds nuw i8, ptr %11, i64 40
  %27 = load i32, ptr %26, align 8, !tbaa !34
  store i32 %27, ptr %25, align 8, !tbaa !34
  %28 = getelementptr inbounds nuw i8, ptr %0, i64 44
  %29 = getelementptr inbounds nuw i8, ptr %11, i64 44
  %30 = load i32, ptr %29, align 4, !tbaa !35
  store i32 %30, ptr %28, align 4, !tbaa !35
  %31 = getelementptr inbounds nuw i8, ptr %0, i64 48
  %32 = getelementptr inbounds nuw i8, ptr %11, i64 48
  %33 = load i32, ptr %32, align 8, !tbaa !36
  store i32 %33, ptr %31, align 8, !tbaa !36
  %34 = getelementptr inbounds nuw i8, ptr %0, i64 52
  %35 = getelementptr inbounds nuw i8, ptr %11, i64 52
  %36 = load i32, ptr %35, align 4, !tbaa !37
  store i32 %36, ptr %34, align 4, !tbaa !37
  %37 = getelementptr inbounds nuw i8, ptr %0, i64 56
  %38 = getelementptr inbounds nuw i8, ptr %11, i64 56
  %39 = load i32, ptr %38, align 8, !tbaa !38
  store i32 %39, ptr %37, align 8, !tbaa !38
  %40 = getelementptr inbounds nuw i8, ptr %0, i64 64
  %41 = getelementptr inbounds nuw i8, ptr %11, i64 64
  %42 = load i64, ptr %41, align 8, !tbaa !7
  store i64 %42, ptr %40, align 8, !tbaa !7
  %.not.i = icmp eq ptr %15, null
  br i1 %.not.i, label %_ZN4ncnn3Mat6addrefEv.exit, label %43

43:                                               ; preds = %4
  %44 = atomicrmw add ptr %15, i32 1 acq_rel, align 4
  br label %_ZN4ncnn3Mat6addrefEv.exit

_ZN4ncnn3Mat6addrefEv.exit:                       ; preds = %4, %43
  ret void
}